target datalayout = "e-m:e-p270:32:32-p271:32:32-p272:64:64-i64:64-i128:128-f80:128-n8:16:32:64-S128"
target triple = "x86_64-pc-linux-gnu"

%struct.rb_data_type_struct = type { ptr, %struct.anon, ptr, ptr, i64 }
%struct.anon = type { ptr, ptr, ptr, ptr, [1 x ptr] }

@eECError = internal global i64 0, align 8
@cEC_GROUP = internal global i64 0, align 8
@eEC_GROUP = internal global i64 0, align 8
@ossl_ec_group_type = internal constant %struct.rb_data_type_struct { ptr @.str.61, %struct.anon { ptr null, ptr @ossl_ec_group_free, ptr null, ptr null, [1 x ptr] zeroinitializer }, ptr null, ptr null, i64 33 }, align 8
@.str.59 = private unnamed_addr constant [28 x i8] c"EC_GROUP is not initialized\00", align 1
@.str.60 = private unnamed_addr constant [19 x i8] c"invalid curve name\00", align 1

; Function Attrs: nounwind sspstrong uwtable
define internal ptr @ec_key_new_from_group(i64 noundef %0) #0 {
  %2 = alloca i64, align 8
  %3 = alloca ptr, align 8
  %4 = alloca ptr, align 8
  %5 = alloca i32, align 4
  store i64 %0, ptr %2, align 8, !tbaa !6
  call void @llvm.lifetime.start.p0(i64 8, ptr %3) #19
  %6 = load i64, ptr %2, align 8, !tbaa !6
  %7 = load i64, ptr @cEC_GROUP, align 8, !tbaa !6
  %8 = call i64 @rb_obj_is_kind_of(i64 noundef %6, i64 noundef %7)
  %9 = icmp ne i64 %8, 0
  br i1 %9, label %10, label %34

10:                                               ; preds = %1
  call void @llvm.lifetime.start.p0(i64 8, ptr %4) #19
  br label %11

11:                                               ; preds = %10
  %12 = load i64, ptr %2, align 8, !tbaa !6
  %13 = call ptr @rb_check_typeddata(i64 noundef %12, ptr noundef @ossl_ec_group_type)
  store ptr %13, ptr %4, align 8, !tbaa !33
  %14 = load ptr, ptr %4, align 8, !tbaa !33
  %15 = icmp eq ptr %14, null
  br i1 %15, label %16, label %18

16:                                               ; preds = %11
  %17 = load i64, ptr @eEC_GROUP, align 8, !tbaa !6
  call void (i64, ptr, ...) @ossl_raise(i64 noundef %17, ptr noundef @.str.59) #20
  unreachable

18:                                               ; preds = %11
  br label %19

19:                                               ; preds = %18
  br label %20

20:                                               ; preds = %19
  %21 = call ptr @EC_KEY_new()
  store ptr %21, ptr %3, align 8, !tbaa !21
  %22 = icmp ne ptr %21, null
  br i1 %22, label %25, label %23

23:                                               ; preds = %20
  %24 = load i64, ptr @eECError, align 8, !tbaa !6
  call void (i64, ptr, ...) @ossl_raise(i64 noundef %24, ptr noundef null) #20
  unreachable

25:                                               ; preds = %20
  %26 = load ptr, ptr %3, align 8, !tbaa !21
  %27 = load ptr, ptr %4, align 8, !tbaa !33
  %28 = call i32 @EC_KEY_set_group(ptr noundef %26, ptr noundef %27)
  %29 = icmp ne i32 %28, 0
  br i1 %29, label %33, label %30

30:                                               ; preds = %25
  %31 = load ptr, ptr %3, align 8, !tbaa !21
  call void @EC_KEY_free(ptr noundef %31)
  %32 = load i64, ptr @eECError, align 8, !tbaa !6
  call void (i64, ptr, ...) @ossl_raise(i64 noundef %32, ptr noundef null) #20
  unreachable

33:                                               ; preds = %25
  call void @llvm.lifetime.end.p0(i64 8, ptr %4) #19
  br label %50

34:                                               ; preds = %1
  call void @llvm.lifetime.start.p0(i64 4, ptr %5) #19
  %35 = call ptr @rb_string_value_cstr(ptr noundef %2)
  %36 = call i32 @OBJ_sn2nid(ptr noundef %35)
  store i32 %36, ptr %5, align 4, !tbaa !10
  %37 = load i32, ptr %5, align 4, !tbaa !10
  %38 = icmp eq i32 %37, 0
  br i1 %38, label %39, label %41

39:                                               ; preds = %34
  %40 = load i64, ptr @eECError, align 8, !tbaa !6
  call void (i64, ptr, ...) @ossl_raise(i64 noundef %40, ptr noundef @.str.60) #20
  unreachable

41:                                               ; preds = %34
  %42 = load i32, ptr %5, align 4, !tbaa !10
  %43 = call ptr @EC_KEY_new_by_curve_name(i32 noundef %42)
  store ptr %43, ptr %3, align 8, !tbaa !21
  %44 = icmp ne ptr %43, null
  br i1 %44, label %47, label %45

45:                                               ; preds = %41
  %46 = load i64, ptr @eECError, align 8, !tbaa !6
  call void (i64, ptr, ...) @ossl_raise(i64 noundef %46, ptr noundef null) #20
  unreachable

47:                                               ; preds = %41
  %48 = load ptr, ptr %3, align 8, !tbaa !21
  call void @EC_KEY_set_asn1_flag(ptr noundef %48, i32 noundef 1)
  %49 = load ptr, ptr %3, align 8, !tbaa !21
  call void @EC_KEY_set_conv_form(ptr noundef %49, i32 noundef 4)
  call void @llvm.lifetime.end.p0(i64 4, ptr %5) #19
  br label %50

50:                                               ; preds = %47, %33
  %51 = load ptr, ptr %3, align 8, !tbaa !21
  call void @llvm.lifetime.end.p0(i64 8, ptr %3) #19
  ret ptr %51
}