; Function Attrs: nounwind sspstrong uwtable
define internal fastcc nonnull ptr @ec_key_new_from_group(i64 noundef %0) unnamed_addr #0 {
  %2 = alloca i64, align 8
  store i64 %0, ptr %2, align 8, !tbaa !6
  %3 = load i64, ptr @cEC_GROUP, align 8, !tbaa !6
  %4 = tail call i64 @rb_obj_is_kind_of(i64 noundef %0, i64 noundef %3) #7
  %.not = icmp eq i64 %4, 0
  br i1 %.not, label %18, label %5

5:                                                ; preds = %1
  %6 = tail call ptr @rb_check_typeddata(i64 noundef %0, ptr noundef nonnull @ossl_ec_group_type) #7
  %7 = icmp eq ptr %6, null
  br i1 %7, label %8, label %10

8:                                                ; preds = %5
  %9 = load i64, ptr @eEC_GROUP, align 8, !tbaa !6
  tail call void (i64, ptr, ...) @ossl_raise(i64 noundef %9, ptr noundef nonnull @.str.59) #9
  unreachable

10:                                               ; preds = %5
  %11 = tail call ptr @EC_KEY_new() #7
  %.not13 = icmp eq ptr %11, null
  br i1 %.not13, label %12, label %14

12:                                               ; preds = %10
  %13 = load i64, ptr @eECError, align 8, !tbaa !6
  tail call void (i64, ptr, ...) @ossl_raise(i64 noundef %13, ptr noundef null) #9
  unreachable

14:                                               ; preds = %10
  %15 = tail call i32 @EC_KEY_set_group(ptr noundef nonnull %11, ptr noundef nonnull %6) #7
  %.not14 = icmp eq i32 %15, 0
  br i1 %.not14, label %16, label %29

16:                                               ; preds = %14
  tail call void @EC_KEY_free(ptr noundef nonnull %11) #7
  %17 = load i64, ptr @eECError, align 8, !tbaa !6
  tail call void (i64, ptr, ...) @ossl_raise(i64 noundef %17, ptr noundef null) #9
  unreachable

18:                                               ; preds = %1
  %19 = call ptr @rb_string_value_cstr(ptr noundef nonnull %2) #7
  %20 = call i32 @OBJ_sn2nid(ptr noundef %19) #7
  %21 = icmp eq i32 %20, 0
  br i1 %21, label %22, label %24

22:                                               ; preds = %18
  %23 = load i64, ptr @eECError, align 8, !tbaa !6
  call void (i64, ptr, ...) @ossl_raise(i64 noundef %23, ptr noundef nonnull @.str.60) #9
  unreachable

24:                                               ; preds = %18
  %25 = call ptr @EC_KEY_new_by_curve_name(i32 noundef %20) #7
  %.not12 = icmp eq ptr %25, null
  br i1 %.not12, label %26, label %28

26:                                               ; preds = %24
  %27 = load i64, ptr @eECError, align 8, !tbaa !6
  call void (i64, ptr, ...) @ossl_raise(i64 noundef %27, ptr noundef null) #9
  unreachable

28:                                               ; preds = %24
  call void @EC_KEY_set_asn1_flag(ptr noundef nonnull %25, i32 noundef 1) #7
  call void @EC_KEY_set_conv_form(ptr noundef nonnull %25, i32 noundef 4) #7
  br label %29

29:                                               ; preds = %14, %28
  %.0 = phi ptr [ %25, %28 ], [ %11, %14 ]
  ret ptr %.0
}